target datalayout = "e-m:e-p270:32:32-p271:32:32-p272:64:64-i64:64-i128:128-f80:128-n8:16:32:64-S128"
target triple = "x86_64-pc-linux-gnu"

%"class.duckdb::AllocatedData" = type { %"class.duckdb::optional_ptr", ptr, i64 }
%"class.duckdb::optional_ptr" = type { ptr }
%"class.duckdb::DbpEncoder" = type { i64, i64, i64, i64, [2048 x i64], i64, [8 x i8], [2048 x i8] }
%"class.duckdb::DlbaEncoder" = type { %"class.duckdb::DbpEncoder", i64, %"class.duckdb::AllocatedData", %"class.duckdb::unique_ptr" }
%"class.duckdb::unique_ptr" = type { %"class.std::unique_ptr" }
%"class.std::unique_ptr" = type { %"struct.std::__uniq_ptr_data" }
%"struct.std::__uniq_ptr_data" = type { %"class.std::__uniq_ptr_impl" }
%"class.std::__uniq_ptr_impl" = type { %"class.std::tuple" }
%"class.std::tuple" = type { %"struct.std::_Tuple_impl" }
%"struct.std::_Tuple_impl" = type { %"struct.std::_Head_base.1" }
%"struct.std::_Head_base.1" = type { ptr }
%"struct.duckdb::string_t" = type { %union.anon }
%union.anon = type { %struct.anon }
%struct.anon = type { i32, [4 x i8], ptr }
%struct.anon.2 = type { i32, [12 x i8] }

; Function Attrs: mustprogress nounwind uwtable
define linkonce_odr noundef nonnull align 8 dereferenceable(8) ptr @_ZNSt10_Head_baseILm0EPN6duckdb12MemoryStreamELb0EE7_M_headERKS3_(ptr noundef nonnull align 8 dereferenceable(8) %0) #1 comdat align 2 {
  %2 = alloca ptr, align 8
  store ptr %0, ptr %2, align 8, !tbaa !566
  %3 = load ptr, ptr %2, align 8, !tbaa !566
  %4 = getelementptr inbounds nuw %"struct.std::_Head_base.1", ptr %3, i32 0, i32 0
  ret ptr %4
}

; Function Attrs: mustprogress nounwind uwtable
define linkonce_odr noundef nonnull align 8 dereferenceable(8) ptr @_ZNSt11_Tuple_implILm0EJPN6duckdb12MemoryStreamESt14default_deleteIS1_EEE7_M_headERKS5_(ptr noundef nonnull align 8 dereferenceable(8) %0) #1 comdat align 2 {
  %2 = alloca ptr, align 8
  store ptr %0, ptr %2, align 8, !tbaa !564
  %3 = load ptr, ptr %2, align 8, !tbaa !564
  %4 = call noundef nonnull align 8 dereferenceable(8) ptr @_ZNSt10_Head_baseILm0EPN6duckdb12MemoryStreamELb0EE7_M_headERKS3_(ptr noundef nonnull align 8 dereferenceable(8) %3) #18
  ret ptr %4
}

; Function Attrs: mustprogress nounwind uwtable
define linkonce_odr noundef nonnull align 8 dereferenceable(8) ptr @_ZSt12__get_helperILm0EPN6duckdb12MemoryStreamEJSt14default_deleteIS1_EEERKT0_RKSt11_Tuple_implIXT_EJS5_DpT1_EE(ptr noundef nonnull align 8 dereferenceable(8) %0) #1 comdat {
  %2 = alloca ptr, align 8
  store ptr %0, ptr %2, align 8, !tbaa !564
  %3 = load ptr, ptr %2, align 8, !tbaa !564
  %4 = call noundef nonnull align 8 dereferenceable(8) ptr @_ZNSt11_Tuple_implILm0EJPN6duckdb12MemoryStreamESt14default_deleteIS1_EEE7_M_headERKS5_(ptr noundef nonnull align 8 dereferenceable(8) %3) #18
  ret ptr %4
}

; Function Attrs: mustprogress nounwind uwtable
define linkonce_odr noundef nonnull align 8 dereferenceable(8) ptr @_ZSt3getILm0EJPN6duckdb12MemoryStreamESt14default_deleteIS1_EEERKNSt13tuple_elementIXT_ESt5tupleIJDpT0_EEE4typeERKS9_(ptr noundef nonnull align 8 dereferenceable(8) %0) #1 comdat {
  %2 = alloca ptr, align 8
  store ptr %0, ptr %2, align 8, !tbaa !562
  %3 = load ptr, ptr %2, align 8, !tbaa !562
  %4 = call noundef nonnull align 8 dereferenceable(8) ptr @_ZSt12__get_helperILm0EPN6duckdb12MemoryStreamEJSt14default_deleteIS1_EEERKT0_RKSt11_Tuple_implIXT_EJS5_DpT1_EE(ptr noundef nonnull align 8 dereferenceable(8) %3) #18
  ret ptr %4
}

; Function Attrs: mustprogress nounwind uwtable
define linkonce_odr noundef ptr @_ZNKSt15__uniq_ptr_implIN6duckdb12MemoryStreamESt14default_deleteIS1_EE6_M_ptrEv(ptr noundef nonnull align 8 dereferenceable(8) %0) #1 comdat align 2 {
  %2 = alloca ptr, align 8
  store ptr %0, ptr %2, align 8, !tbaa !560
  %3 = load ptr, ptr %2, align 8
  %4 = getelementptr inbounds nuw %"class.std::__uniq_ptr_impl", ptr %3, i32 0, i32 0
  %5 = call noundef nonnull align 8 dereferenceable(8) ptr @_ZSt3getILm0EJPN6duckdb12MemoryStreamESt14default_deleteIS1_EEERKNSt13tuple_elementIXT_ESt5tupleIJDpT0_EEE4typeERKS9_(ptr noundef nonnull align 8 dereferenceable(8) %4) #18
  %6 = load ptr, ptr %5, align 8, !tbaa !85
  ret ptr %6
}

; Function Attrs: mustprogress nounwind uwtable
define linkonce_odr noundef ptr @_ZN6duckdb19const_char_ptr_castIcEEPKcPKT_(ptr noundef %0) #1 comdat {
  %2 = alloca ptr, align 8
  store ptr %0, ptr %2, align 8, !tbaa !92
  %3 = load ptr, ptr %2, align 8, !tbaa !92
  ret ptr %3
}

; Function Attrs: mustprogress nounwind uwtable
define linkonce_odr noundef zeroext i1 @_ZNK6duckdb8string_t9IsInlinedEv(ptr noundef nonnull align 8 dereferenceable(16) %0) #1 comdat align 2 {
  %2 = alloca ptr, align 8
  store ptr %0, ptr %2, align 8, !tbaa !43
  %3 = load ptr, ptr %2, align 8
  %4 = call noundef i64 @_ZNK6duckdb8string_t7GetSizeEv(ptr noundef nonnull align 8 dereferenceable(16) %3)
  %5 = icmp ule i64 %4, 12
  ret i1 %5
}

; Function Attrs: mustprogress nounwind uwtable
define linkonce_odr noundef ptr @_ZNKSt10unique_ptrIN6duckdb12MemoryStreamESt14default_deleteIS1_EE3getEv(ptr noundef nonnull align 8 dereferenceable(8) %0) #1 comdat align 2 {
  %2 = alloca ptr, align 8
  store ptr %0, ptr %2, align 8, !tbaa !558
  %3 = load ptr, ptr %2, align 8
  %4 = getelementptr inbounds nuw %"class.std::unique_ptr", ptr %3, i32 0, i32 0
  %5 = call noundef ptr @_ZNKSt15__uniq_ptr_implIN6duckdb12MemoryStreamESt14default_deleteIS1_EE6_M_ptrEv(ptr noundef nonnull align 8 dereferenceable(8) %4) #18
  ret ptr %5
}

; Function Attrs: mustprogress nounwind uwtable
define linkonce_odr noundef i64 @_ZN6duckdb8MinValueIlEET_S1_S1_(i64 noundef %0, i64 noundef %1) #1 comdat {
  %3 = alloca i64, align 8
  %4 = alloca i64, align 8
  store i64 %0, ptr %3, align 8, !tbaa !10
  store i64 %1, ptr %4, align 8, !tbaa !10
  %5 = load i64, ptr %3, align 8, !tbaa !10
  %6 = load i64, ptr %4, align 8, !tbaa !10
  %7 = icmp slt i64 %5, %6
  br i1 %7, label %8, label %10

8:                                                ; preds = %2
  %9 = load i64, ptr %3, align 8, !tbaa !10
  br label %12

10:                                               ; preds = %2
  %11 = load i64, ptr %4, align 8, !tbaa !10
  br label %12

12:                                               ; preds = %10, %8
  %13 = phi i64 [ %9, %8 ], [ %11, %10 ]
  ret i64 %13
}

; Function Attrs: mustprogress nounwind uwtable
define linkonce_odr noundef ptr @_ZN6duckdb19const_data_ptr_castIcEEPKhPKT_(ptr noundef %0) #1 comdat {
  %2 = alloca ptr, align 8
  store ptr %0, ptr %2, align 8, !tbaa !92
  %3 = load ptr, ptr %2, align 8, !tbaa !92
  ret ptr %3
}

; Function Attrs: mustprogress uwtable
define linkonce_odr noundef ptr @_ZNK6duckdb8string_t7GetDataEv(ptr noundef nonnull align 8 dereferenceable(16) %0) #0 comdat align 2 {
  %2 = alloca ptr, align 8
  store ptr %0, ptr %2, align 8, !tbaa !43
  %3 = load ptr, ptr %2, align 8
  %4 = call noundef zeroext i1 @_ZNK6duckdb8string_t9IsInlinedEv(ptr noundef nonnull align 8 dereferenceable(16) %3)
  br i1 %4, label %5, label %10

5:                                                ; preds = %1
  %6 = getelementptr inbounds nuw %"struct.duckdb::string_t", ptr %3, i32 0, i32 0
  %7 = getelementptr inbounds nuw %struct.anon.2, ptr %6, i32 0, i32 1
  %8 = getelementptr inbounds [12 x i8], ptr %7, i64 0, i64 0
  %9 = call noundef ptr @_ZN6duckdb19const_char_ptr_castIcEEPKcPKT_(ptr noundef %8)
  br label %14

10:                                               ; preds = %1
  %11 = getelementptr inbounds nuw %"struct.duckdb::string_t", ptr %3, i32 0, i32 0
  %12 = getelementptr inbounds nuw %struct.anon, ptr %11, i32 0, i32 2
  %13 = load ptr, ptr %12, align 8, !tbaa !12
  br label %14

14:                                               ; preds = %10, %5
  %15 = phi ptr [ %9, %5 ], [ %13, %10 ]
  ret ptr %15
}

; Function Attrs: mustprogress nounwind uwtable
define linkonce_odr noundef ptr @_ZNK6duckdb10unique_ptrINS_12MemoryStreamESt14default_deleteIS1_ELb0EEptEv(ptr noundef nonnull align 8 dereferenceable(8) %0) #1 comdat align 2 {
  %2 = alloca ptr, align 8
  %3 = alloca ptr, align 8
  store ptr %0, ptr %2, align 8, !tbaa !556
  %4 = load ptr, ptr %2, align 8
  call void @llvm.lifetime.start.p0(i64 8, ptr %3) #18
  %5 = call noundef ptr @_ZNKSt10unique_ptrIN6duckdb12MemoryStreamESt14default_deleteIS1_EE3getEv(ptr noundef nonnull align 8 dereferenceable(8) %4) #18
  store ptr %5, ptr %3, align 8, !tbaa !85
  %6 = load ptr, ptr %3, align 8, !tbaa !85
  call void @llvm.lifetime.end.p0(i64 8, ptr %3) #18
  ret ptr %6
}

; Function Attrs: mustprogress uwtable
define linkonce_odr void @_ZN6duckdb10DbpEncoder10WriteValueERNS_11WriteStreamERKl(ptr noundef nonnull align 8 dereferenceable(18480) %0, ptr noundef nonnull align 8 dereferenceable(8) %1, ptr noundef nonnull align 8 dereferenceable(8) %2) #0 comdat align 2 {
  %4 = alloca ptr, align 8
  %5 = alloca ptr, align 8
  %6 = alloca ptr, align 8
  %7 = alloca i64, align 8
  store ptr %0, ptr %4, align 8, !tbaa !25
  store ptr %1, ptr %5, align 8, !tbaa !27
  store ptr %2, ptr %6, align 8, !tbaa !29
  %8 = load ptr, ptr %4, align 8
  call void @llvm.lifetime.start.p0(i64 8, ptr %7) #18
  %9 = load ptr, ptr %6, align 8, !tbaa !29
  %10 = load i64, ptr %9, align 8, !tbaa !10
  %11 = getelementptr inbounds nuw %"class.duckdb::DbpEncoder", ptr %8, i32 0, i32 2
  %12 = load i64, ptr %11, align 8, !tbaa !34
  %13 = sub i64 %10, %12
  store i64 %13, ptr %7, align 8, !tbaa !10
  %14 = load ptr, ptr %6, align 8, !tbaa !29
  %15 = load i64, ptr %14, align 8, !tbaa !10
  %16 = getelementptr inbounds nuw %"class.duckdb::DbpEncoder", ptr %8, i32 0, i32 2
  store i64 %15, ptr %16, align 8, !tbaa !34
  %17 = getelementptr inbounds nuw %"class.duckdb::DbpEncoder", ptr %8, i32 0, i32 3
  %18 = load i64, ptr %17, align 8, !tbaa !35
  %19 = load i64, ptr %7, align 8, !tbaa !10
  %20 = call noundef i64 @_ZN6duckdb8MinValueIlEET_S1_S1_(i64 noundef %18, i64 noundef %19)
  %21 = getelementptr inbounds nuw %"class.duckdb::DbpEncoder", ptr %8, i32 0, i32 3
  store i64 %20, ptr %21, align 8, !tbaa !35
  %22 = load i64, ptr %7, align 8, !tbaa !10
  %23 = getelementptr inbounds nuw %"class.duckdb::DbpEncoder", ptr %8, i32 0, i32 4
  %24 = getelementptr inbounds nuw %"class.duckdb::DbpEncoder", ptr %8, i32 0, i32 5
  %25 = load i64, ptr %24, align 8, !tbaa !36
  %26 = add i64 %25, 1
  store i64 %26, ptr %24, align 8, !tbaa !36
  %27 = getelementptr inbounds nuw [2048 x i64], ptr %23, i64 0, i64 %25
  store i64 %22, ptr %27, align 8, !tbaa !10
  %28 = getelementptr inbounds nuw %"class.duckdb::DbpEncoder", ptr %8, i32 0, i32 5
  %29 = load i64, ptr %28, align 8, !tbaa !36
  %30 = icmp eq i64 %29, 2048
  br i1 %30, label %31, label %33

31:                                               ; preds = %3
  %32 = load ptr, ptr %5, align 8, !tbaa !27
  call void @_ZN6duckdb10DbpEncoder10WriteBlockERNS_11WriteStreamE(ptr noundef nonnull align 8 dereferenceable(18480) %8, ptr noundef nonnull align 8 dereferenceable(8) %32)
  br label %33

33:                                               ; preds = %31, %3
  call void @llvm.lifetime.end.p0(i64 8, ptr %7) #18
  ret void
}

; Function Attrs: mustprogress nounwind uwtable
define linkonce_odr noundef i64 @_ZN6duckdb17UnsafeNumericCastIlmvEET_T0_(i64 noundef %0) #1 comdat {
  %2 = alloca i64, align 8
  store i64 %0, ptr %2, align 8, !tbaa !10
  %3 = load i64, ptr %2, align 8, !tbaa !10
  ret i64 %3
}

; Function Attrs: mustprogress nounwind uwtable
define linkonce_odr noundef i64 @_ZNK6duckdb8string_t7GetSizeEv(ptr noundef nonnull align 8 dereferenceable(16) %0) #1 comdat align 2 {
  %2 = alloca ptr, align 8
  store ptr %0, ptr %2, align 8, !tbaa !43
  %3 = load ptr, ptr %2, align 8
  %4 = getelementptr inbounds nuw %"struct.duckdb::string_t", ptr %3, i32 0, i32 0
  %5 = getelementptr inbounds nuw %struct.anon.2, ptr %4, i32 0, i32 0
  %6 = load i32, ptr %5, align 8, !tbaa !12
  %7 = zext i32 %6 to i64
  ret i64 %7
}

; Function Attrs: mustprogress uwtable
define linkonce_odr void @_ZN6duckdb11DlbaEncoder10WriteValueERNS_11WriteStreamERKNS_8string_tE(ptr noundef nonnull align 8 dereferenceable(18520) %0, ptr noundef nonnull align 8 dereferenceable(8) %1, ptr noundef nonnull align 8 dereferenceable(16) %2) #0 comdat align 2 {
  %4 = alloca ptr, align 8
  %5 = alloca ptr, align 8
  %6 = alloca ptr, align 8
  %7 = alloca i64, align 8
  store ptr %0, ptr %4, align 8, !tbaa !41
  store ptr %1, ptr %5, align 8, !tbaa !27
  store ptr %2, ptr %6, align 8, !tbaa !43
  %8 = load ptr, ptr %4, align 8
  %9 = getelementptr inbounds nuw %"class.duckdb::DlbaEncoder", ptr %8, i32 0, i32 0
  %10 = load ptr, ptr %5, align 8, !tbaa !27
  call void @llvm.lifetime.start.p0(i64 8, ptr %7) #18
  %11 = load ptr, ptr %6, align 8, !tbaa !43
  %12 = call noundef i64 @_ZNK6duckdb8string_t7GetSizeEv(ptr noundef nonnull align 8 dereferenceable(16) %11)
  %13 = call noundef i64 @_ZN6duckdb17UnsafeNumericCastIlmvEET_T0_(i64 noundef %12)
  store i64 %13, ptr %7, align 8, !tbaa !10
  call void @_ZN6duckdb10DbpEncoder10WriteValueERNS_11WriteStreamERKl(ptr noundef nonnull align 8 dereferenceable(18480) %9, ptr noundef nonnull align 8 dereferenceable(8) %10, ptr noundef nonnull align 8 dereferenceable(8) %7)
  call void @llvm.lifetime.end.p0(i64 8, ptr %7) #18
  %14 = getelementptr inbounds nuw %"class.duckdb::DlbaEncoder", ptr %8, i32 0, i32 3
  %15 = call noundef ptr @_ZNK6duckdb10unique_ptrINS_12MemoryStreamESt14default_deleteIS1_ELb0EEptEv(ptr noundef nonnull align 8 dereferenceable(8) %14)
  %16 = load ptr, ptr %6, align 8, !tbaa !43
  %17 = call noundef ptr @_ZNK6duckdb8string_t7GetDataEv(ptr noundef nonnull align 8 dereferenceable(16) %16)
  %18 = call noundef ptr @_ZN6duckdb19const_data_ptr_castIcEEPKhPKT_(ptr noundef %17)
  %19 = load ptr, ptr %6, align 8, !tbaa !43
  %20 = call noundef i64 @_ZNK6duckdb8string_t7GetSizeEv(ptr noundef nonnull align 8 dereferenceable(16) %19)
  %21 = load ptr, ptr %15, align 8, !tbaa !45
  %22 = getelementptr inbounds ptr, ptr %21, i64 0
  %23 = load ptr, ptr %22, align 8
  call void %23(ptr noundef nonnull align 8 dereferenceable(48) %15, ptr noundef %18, i64 noundef %20)
  ret void
}

; Function Attrs: mustprogress uwtable
define void @_ZN6duckdb12dlba_encoder10WriteValueINS_8string_tEEEvRNS_11DlbaEncoderERNS_11WriteStreamERKT_(ptr noundef nonnull align 8 dereferenceable(18520) %0, ptr noundef nonnull align 8 dereferenceable(8) %1, ptr noundef nonnull align 8 dereferenceable(16) %2) #0 {
  %4 = alloca ptr, align 8
  %5 = alloca ptr, align 8
  %6 = alloca ptr, align 8
  store ptr %0, ptr %4, align 8, !tbaa !41
  store ptr %1, ptr %5, align 8, !tbaa !27
  store ptr %2, ptr %6, align 8, !tbaa !43
  %7 = load ptr, ptr %4, align 8, !tbaa !41
  %8 = load ptr, ptr %5, align 8, !tbaa !27
  %9 = load ptr, ptr %6, align 8, !tbaa !43
  call void @_ZN6duckdb11DlbaEncoder10WriteValueERNS_11WriteStreamERKNS_8string_tE(ptr noundef nonnull align 8 dereferenceable(18520) %7, ptr noundef nonnull align 8 dereferenceable(8) %8, ptr noundef nonnull align 8 dereferenceable(16) %9)
  ret void
}