; Function Attrs: mustprogress uwtable
define void @_ZN6duckdb12dlba_encoder10WriteValueINS_8string_tEEEvRNS_11DlbaEncoderERNS_11WriteStreamERKT_(ptr noundef nonnull align 8 dereferenceable(18520) %0, ptr noundef nonnull align 8 dereferenceable(8) %1, ptr noundef nonnull align 8 dereferenceable(16) %2) local_unnamed_addr #1 {
  %4 = load i32, ptr %2, align 8, !tbaa !3
  %5 = zext i32 %4 to i64
  %6 = getelementptr inbounds nuw i8, ptr %0, i64 16
  %7 = load i64, ptr %6, align 8, !tbaa !26
  %8 = sub i64 %5, %7
  store i64 %5, ptr %6, align 8, !tbaa !26
  %9 = getelementptr inbounds nuw i8, ptr %0, i64 24
  %10 = load i64, ptr %9, align 8, !tbaa !27
  %11 = tail call noundef i64 @llvm.smin.i64(i64 %10, i64 %8)
  store i64 %11, ptr %9, align 8, !tbaa !27
  %12 = getelementptr inbounds nuw i8, ptr %0, i64 32
  %13 = getelementptr inbounds nuw i8, ptr %0, i64 16416
  %14 = load i64, ptr %13, align 8, !tbaa !28
  %15 = add i64 %14, 1
  store i64 %15, ptr %13, align 8, !tbaa !28
  %16 = getelementptr inbounds nuw [2048 x i64], ptr %12, i64 0, i64 %14
  store i64 %8, ptr %16, align 8, !tbaa !24
  %17 = load i64, ptr %13, align 8, !tbaa !28
  %18 = icmp eq i64 %17, 2048
  br i1 %18, label %19, label %_ZN6duckdb11DlbaEncoder10WriteValueERNS_11WriteStreamERKNS_8string_tE.exit

19:                                               ; preds = %3
  tail call void @_ZN6duckdb10DbpEncoder10WriteBlockERNS_11WriteStreamE(ptr noundef nonnull align 8 dereferenceable(18520) %0, ptr noundef nonnull align 8 dereferenceable(8) %1)
  br label %_ZN6duckdb11DlbaEncoder10WriteValueERNS_11WriteStreamERKNS_8string_tE.exit

_ZN6duckdb11DlbaEncoder10WriteValueERNS_11WriteStreamERKNS_8string_tE.exit: ; preds = %3, %19
  %20 = getelementptr inbounds nuw i8, ptr %0, i64 18512
  %21 = load ptr, ptr %20, align 8, !tbaa !31
  %22 = load i32, ptr %2, align 8, !tbaa !3
  %23 = icmp ult i32 %22, 13
  %24 = getelementptr inbounds nuw i8, ptr %2, i64 4
  %25 = getelementptr inbounds nuw i8, ptr %2, i64 8
  %26 = load ptr, ptr %25, align 8
  %27 = select i1 %23, ptr %24, ptr %26
  %28 = zext i32 %22 to i64
  %29 = load ptr, ptr %21, align 8, !tbaa !19
  %30 = load ptr, ptr %29, align 8
  tail call void %30(ptr noundef nonnull align 8 dereferenceable(48) %21, ptr noundef %27, i64 noundef %28)
  ret void
}